; Function Attrs: mustprogress nofree norecurse nosync nounwind willreturn memory(read, argmem: readwrite, inaccessiblemem: none) uwtable
define range(i32 -46, 1) i32 @pmix_mca_base_var_group_get_internal(i32 noundef %0, ptr noundef writeonly captures(none) %1, i1 noundef zeroext %2) local_unnamed_addr #4 {
  %4 = icmp slt i32 %0, 0
  br i1 %4, label %17, label %5

5:                                                ; preds = %3
  %6 = load i32, ptr getelementptr inbounds nuw (i8, ptr @pmix_mca_base_var_groups, i64 128), align 8
  %.not = icmp sgt i32 %6, %0
  br i1 %.not, label %pmix_pointer_array_get_item.exit, label %pmix_pointer_array_get_item.exit.thread, !prof !40

pmix_pointer_array_get_item.exit:                 ; preds = %5
  %7 = load ptr, ptr getelementptr inbounds nuw (i8, ptr @pmix_mca_base_var_groups, i64 152), align 8, !tbaa !41
  %8 = zext nneg i32 %0 to i64
  %9 = getelementptr inbounds nuw ptr, ptr %7, i64 %8
  %10 = load ptr, ptr %9, align 8, !tbaa !18
  store ptr %10, ptr %1, align 8, !tbaa !44
  %11 = icmp eq ptr %10, null
  br i1 %11, label %pmix_pointer_array_get_item.exit.thread, label %12

12:                                               ; preds = %pmix_pointer_array_get_item.exit
  br i1 %2, label %17, label %13

13:                                               ; preds = %12
  %14 = getelementptr inbounds nuw i8, ptr %10, i64 148
  %15 = load i8, ptr %14, align 4, !tbaa !46, !range !47, !noundef !48
  %16 = trunc nuw i8 %15 to i1
  br i1 %16, label %17, label %pmix_pointer_array_get_item.exit.thread

pmix_pointer_array_get_item.exit.thread:          ; preds = %5, %13, %pmix_pointer_array_get_item.exit
  store ptr null, ptr %1, align 8, !tbaa !44
  br label %17

17:                                               ; preds = %12, %13, %3, %pmix_pointer_array_get_item.exit.thread
  %.0 = phi i32 [ -46, %pmix_pointer_array_get_item.exit.thread ], [ -46, %3 ], [ 0, %13 ], [ 0, %12 ]
  ret i32 %.0
}